; Function Attrs: mustprogress uwtable
define dso_local noundef zeroext i1 @_ZNK3Lhs11is_volatileEv(ptr noundef nonnull readonly align 8 captures(none) dereferenceable(41) %0) local_unnamed_addr #3 align 2 {
  %2 = getelementptr inbounds nuw i8, ptr %0, i64 24
  %3 = load ptr, ptr %2, align 8, !tbaa !97
  %4 = getelementptr inbounds nuw i8, ptr %3, i64 64
  %5 = load ptr, ptr %4, align 8, !tbaa !42
  %6 = tail call noundef i32 @_ZNK4Type18get_indirect_levelEv(ptr noundef nonnull align 8 dereferenceable(136) %5)
  %7 = getelementptr inbounds nuw i8, ptr %0, i64 32
  %8 = load ptr, ptr %7, align 8, !tbaa !92
  %9 = tail call noundef i32 @_ZNK4Type18get_indirect_levelEv(ptr noundef nonnull align 8 dereferenceable(136) %8)
  %10 = sub nsw i32 %6, %9
  %11 = load ptr, ptr %2, align 8, !tbaa !97
  %12 = tail call noundef zeroext i1 @_ZNK8Variable23is_volatile_after_derefEi(ptr noundef nonnull align 8 dereferenceable(200) %11, i32 noundef %10)
  ret i1 %12
}